Certificate:
    Data:
        Version: 3 (0x2)
        Serial Number: 2 (0x2)
        Signature Algorithm: md5WithRSAEncryption
        Issuer: C=GB, O=ITK Accreditation, OU=ITK Testbench, CN=Root Certificate Authority/emailAddress=damian.murphy@nhs.net
        Validity
            Not Before: Aug 15 10:14:53 2012 GMT
            Not After : Aug 13 10:14:53 2022 GMT
        Subject: C=GB, O=ITK Accreditation, OU=ITK Testbench, CN=TLS Sub CA
        Subject Public Key Info:
            Public Key Algorithm: rsaEncryption
            RSA Public Key: (2048 bit)
                Modulus (2048 bit):
                    00:d9:ef:b5:2c:0f:4c:6d:96:2b:64:4b:9a:76:0b:
                    ce:5f:5b:10:c1:04:f2:bd:63:8e:06:5a:7a:6e:b2:
                    33:35:77:91:c0:75:15:51:6d:08:a0:4e:3d:03:6b:
                    9a:ef:aa:8e:fe:9f:7a:4e:4f:d2:e9:8d:05:4b:60:
                    df:1b:be:fa:cc:63:b3:90:43:55:76:d0:55:f3:f4:
                    b4:d3:0a:69:de:91:4f:1e:b0:4e:94:b2:3b:70:af:
                    23:99:86:7b:a2:c2:fb:b8:b8:44:b9:b4:f3:e7:ee:
                    63:59:7f:73:3b:ce:4b:62:a9:f4:84:e7:08:fa:dd:
                    e7:63:51:cb:02:83:54:6e:a1:99:dc:40:2c:32:71:
                    c0:c4:7f:36:db:1f:d4:18:2a:75:01:ed:de:07:f2:
                    c4:7d:b0:44:bc:bd:a3:f8:ee:ad:e0:4a:98:fd:13:
                    38:4d:cf:09:6c:2f:75:31:a5:fd:b4:65:05:54:51:
                    59:d8:a5:10:4f:2e:30:3b:bf:94:f3:ed:9c:a4:86:
                    02:c9:4e:43:20:12:38:55:a8:0a:f1:3f:6d:1c:db:
                    5f:27:b9:90:6e:c2:cb:d9:d1:a7:85:f6:b7:55:4d:
                    48:2f:52:9e:fd:56:87:16:7c:5e:a1:41:e3:41:b9:
                    43:c1:0d:d4:46:37:76:09:03:b3:57:b9:27:53:56:
                    b6:a9
                Exponent: 65537 (0x10001)
        X509v3 extensions:
            X509v3 Subject Key Identifier: 
            11:CE:F3:F0:8D:A7:5A:9E:31:44:07:22:8D:26:6F:C3:EB:1C:C3:BE
            X509v3 Authority Key Identifier: 
            keyid:48:B3:59:3F:B9:45:B1:4D:27:FB:3F:54:9D:C6:11:10:1E:4F:26:ED
            DirName:/C=GB/O=ITK Accreditation/OU=ITK Testbench/CN=Root Certificate Authority/emailAddress=damian.murphy@nhs.net
            serial:00

            X509v3 Basic Constraints: 
            CA:TRUE
    Signature Algorithm: md5WithRSAEncryption
        0b:b0:45:28:81:50:a1:21:6a:b0:e0:36:4e:8c:e6:42:66:cf:
        9b:77:74:fc:51:dd:ea:58:e7:3a:af:85:cb:e9:c4:8d:c7:48:
        5d:09:6b:4a:23:d9:97:76:f2:74:c4:16:de:ad:21:77:1a:c0:
        12:43:c3:00:4d:52:13:af:41:ae:42:80:17:dc:02:c6:61:1d:
        c1:51:b1:b8:65:41:b3:f1:fe:f4:9c:97:34:85:16:b2:26:30:
        84:6e:37:84:4a:10:da:f8:52:cd:49:5a:da:9b:1c:ab:f8:74:
        f4:db:2d:41:25:a5:9e:17:70:c7:48:03:97:dd:f4:4a:41:ef:
        71:b4:43:78:02:1e:c2:9e:5b:cf:f8:c0:ff:d1:83:b6:ab:84:
        d2:97:52:be:8e:bf:72:fa:16:23:3d:2b:72:d9:24:6e:b4:0c:
        0b:a5:2a:e0:89:c3:e9:99:fa:73:0a:4c:8f:a3:ef:07:b5:86:
        f0:87:e1:04:ea:64:7f:37:61:e8:09:64:a4:53:77:64:a5:0d:
        48:73:bf:8c:e3:cd:78:59:15:91:e4:32:db:0a:e9:2f:a4:fc:
        89:f4:53:7b:ee:c5:cb:6d:aa:5f:e5:ad:5c:5c:1d:f0:53:08:
        b5:fa:6b:e8:38:09:47:05:71:20:ad:43:33:89:d9:50:39:33:
        8d:e5:40:d3
-----BEGIN CERTIFICATE-----
MIIESzCCAzOgAwIBAgIBAjANBgkqhkiG9w0BAQQFADCBjDELMAkGA1UEBhMCR0Ix
GjAYBgNVBAoTEUlUSyBBY2NyZWRpdGF0aW9uMRYwFAYDVQQLEw1JVEsgVGVzdGJl
bmNoMSMwIQYDVQQDExpSb290IENlcnRpZmljYXRlIEF1dGhvcml0eTEkMCIGCSqG
SIb3DQEJARYVZGFtaWFuLm11cnBoeUBuaHMubmV0MB4XDTEyMDgxNTEwMTQ1M1oX
DTIyMDgxMzEwMTQ1M1owVjELMAkGA1UEBhMCR0IxGjAYBgNVBAoTEUlUSyBBY2Ny
ZWRpdGF0aW9uMRYwFAYDVQQLEw1JVEsgVGVzdGJlbmNoMRMwEQYDVQQDEwpUTFMg
U3ViIENBMIIBIjANBgkqhkiG9w0BAQEFAAOCAQ8AMIIBCgKCAQEA2e+1LA9MbZYr
ZEuadgvOX1sQwQTyvWOOBlp6brIzNXeRwHUVUW0IoE49A2ua76qO/p96Tk/S6Y0F
S2DfG776zGOzkENVdtBV8/S00wpp3pFPHrBOlLI7cK8jmYZ7osL7uLhEubTz5+5j
WX9zO85LYqn0hOcI+t3nY1HLAoNUbqGZ3EAsMnHAxH822x/UGCp1Ae3eB/LEfbBE
vL2j+O6t4EqY/RM4Tc8JbC91MaX9tGUFVFFZ2KUQTy4wO7+U8+2cpIYCyU5DIBI4
VagK8T9tHNtfJ7mQbsLL2dGnhfa3VU1IL1Ke/VaHFnxeoUHjQblDwQ3URjd2CQOz
V7knU1a2qQIDAQABo4HsMIHpMB0GA1UdDgQWBBQRzvPwjadanjFEByKNJm/D6xzD
vjCBuQYDVR0jBIGxMIGugBRIs1k/uUWxTSf7P1SdxhEQHk8m7aGBkqSBjzCBjDEL
MAkGA1UEBhMCR0IxGjAYBgNVBAoTEUlUSyBBY2NyZWRpdGF0aW9uMRYwFAYDVQQL
Ew1JVEsgVGVzdGJlbmNoMSMwIQYDVQQDExpSb290IENlcnRpZmljYXRlIEF1dGhv
cml0eTEkMCIGCSqGSIb3DQEJARYVZGFtaWFuLm11cnBoeUBuaHMubmV0ggEAMAwG
A1UdEwQFMAMBAf8wDQYJKoZIhvcNAQEEBQADggEBAAuwRSiBUKEharDgNk6M5kJm
z5t3dPxR3epY5zqvhcvpxI3HSF0Ja0oj2Zd28nTEFt6tIXcawBJDwwBNUhOvQa5C
gBfcAsZhHcFRsbhlQbPx/vSclzSFFrImMIRuN4RKENr4Us1JWtqbHKv4dPTbLUEl
pZ4XcMdIA5fd9EpB73G0Q3gCHsKeW8/4wP/Rg7arhNKXUr6Ov3L6FiM9K3LZJG60
DAulKuCJw+mZ+nMKTI+j7we1hvCH4QTqZH83YegJZKRTd2SlDUhzv4zjzXhZFZHk
MtsK6S+k/In0U3vuxcttql/lrVxcHfBTCLX6a+g4CUcFcSCtQzOJ2VA5M43lQNM=
-----END CERTIFICATE-----
